target datalayout = "e-m:e-p270:32:32-p271:32:32-p272:64:64-i64:64-i128:128-f80:128-n8:16:32:64-S128"
target triple = "x86_64-unknown-linux-gnu"

%struct.stat = type { i64, i64, i64, i32, i32, i32, i32, i64, i64, i64, i64, %struct.timespec, %struct.timespec, %struct.timespec, [3 x i64] }
%struct.timespec = type { i64, i64 }

; Function Attrs: mustprogress nounwind uwtable
define internal noundef zeroext i1 @_ZN7rocksdb12_GLOBAL__N_115PosixFileSystem9DirExistsERKNSt7__cxx1112basic_stringIcSt11char_traitsIcESaIcEEE(ptr noundef nonnull align 8 dereferenceable(57) %this, ptr noundef nonnull align 8 dereferenceable(32) %dname) unnamed_addr #3 align 2 {
entry:
  %retval = alloca i1, align 1
  %this.addr = alloca ptr, align 8
  %dname.addr = alloca ptr, align 8
  %statbuf = alloca %struct.stat, align 8
  store ptr %this, ptr %this.addr, align 8
  store ptr %dname, ptr %dname.addr, align 8
  %0 = load ptr, ptr %dname.addr, align 8
  %call = call noundef ptr @_ZNKSt7__cxx1112basic_stringIcSt11char_traitsIcESaIcEE5c_strEv(ptr noundef nonnull align 8 dereferenceable(32) %0) #4
  %call2 = call i32 @stat(ptr noundef %call, ptr noundef %statbuf) #4
  %cmp = icmp eq i32 %call2, 0
  br i1 %cmp, label %if.then, label %if.end

if.then:                                          ; preds = %entry
  %st_mode = getelementptr inbounds %struct.stat, ptr %statbuf, i32 0, i32 3
  %1 = load i32, ptr %st_mode, align 8
  %and = and i32 %1, 61440
  %cmp3 = icmp eq i32 %and, 16384
  store i1 %cmp3, ptr %retval, align 1
  br label %return

if.end:                                           ; preds = %entry
  store i1 false, ptr %retval, align 1
  br label %return

return:                                           ; preds = %if.end, %if.then
  %2 = load i1, ptr %retval, align 1
  ret i1 %2
}