; Function Attrs: mustprogress nounwind uwtable
define internal noundef zeroext i1 @_ZN7rocksdb12_GLOBAL__N_115PosixFileSystem9DirExistsERKNSt7__cxx1112basic_stringIcSt11char_traitsIcESaIcEEE(ptr nocapture nonnull readnone align 8 %this, ptr noundef nonnull align 8 dereferenceable(32) %dname) unnamed_addr #3 align 2 {
entry:
  %statbuf = alloca %struct.stat, align 8
  %call = tail call noundef ptr @_ZNKSt7__cxx1112basic_stringIcSt11char_traitsIcESaIcEE5c_strEv(ptr noundef nonnull align 8 dereferenceable(32) %dname) #29
  %call2 = call i32 @stat(ptr noundef %call, ptr noundef nonnull %statbuf) #29
  %cmp = icmp eq i32 %call2, 0
  %st_mode = getelementptr inbounds i8, ptr %statbuf, i64 24
  %0 = load i32, ptr %st_mode, align 8
  %and = and i32 %0, 61440
  %cmp3 = icmp eq i32 %and, 16384
  %retval.0 = select i1 %cmp, i1 %cmp3, i1 false
  ret i1 %retval.0
}